(dp0
S'DL3'
p1
(dp2
S'activation'
p3
S'softmax'
p4
sS'Dense'
p5
I0
ssS'fineTuning'
p6
S'n'
p7
sS'DL1'
p8
(dp9
g3
S'relu'
p10
sg5
I512
ssS'learningRate'
p11
S'0.001'
p12
sS'flatten'
p13
S'Flatten'
p14
sS'DL2'
p15
(dp16
g3
g10
sg5
I1024
ssS'tf'
p17
S'yes'
p18
sS'DenseLayers'
p19
I3
sS'model'
p20
S'MobileNet'
p21
sS'epochs'
p22
I2
s.